Certificate:
    Data:
        Version: 3 (0x2)
        Serial Number: 12655831530416757421 (0xafa28bb933addaad)
    Signature Algorithm: sha1WithRSAEncryption
        Issuer: C=US, ST=California, O=XML Security Library (http://www.aleksey.com/xmlsec), OU=Root CA, CN=Aleksey Sanin/emailAddress=xmlsec@aleksey.com
        Validity
            Not Before: May 23 17:52:38 2014 GMT
            Not After : Apr 29 17:52:38 2114 GMT
        Subject: C=US, ST=California, O=XML Security Library (http://www.aleksey.com/xmlsec), CN=Aleksey Sanin/emailAddress=xmlsec@aleksey.com
        Subject Public Key Info:
            Public Key Algorithm: rsaEncryption
                Public-Key: (512 bit)
                Modulus:
                    00:b2:ba:f2:89:d8:2b:94:3c:3d:f7:82:13:ed:e1:
                    0f:0c:8a:57:ac:1f:15:5b:6e:9c:8a:7e:66:9b:ad:
                    85:69:0c:65:43:98:e2:8a:a7:7d:fb:a8:95:19:67:
                    de:4a:7f:09:57:6d:1d:a3:d3:3c:8a:58:99:af:47:
                    15:31:f8:fb:13
                Exponent: 65537 (0x10001)
        X509v3 extensions:
            X509v3 Basic Constraints: 
                CA:TRUE
            Netscape Comment: 
                OpenSSL Generated Certificate
            X509v3 Subject Key Identifier: 
                FE:E4:EC:53:24:F0:95:95:C7:10:B5:E1:44:B5:5D:39:65:5A:E3:7E
            X509v3 Authority Key Identifier: 
                keyid:06:B5:A4:AC:A7:AA:75:44:EA:15:9C:4F:DF:05:83:4F:6A:1E:FE:0B
                DirName:/C=US/ST=California/O=XML Security Library (http://www.aleksey.com/xmlsec)/OU=Root CA/CN=Aleksey Sanin/emailAddress=xmlsec@aleksey.com
                serial:AF:A2:8B:B9:33:AD:DA:AC

    Signature Algorithm: sha1WithRSAEncryption
         6e:4c:05:ba:dc:08:16:aa:a5:03:3c:68:bc:06:25:db:74:a1:
         e1:14:fe:09:f2:a8:24:76:fe:56:31:ae:92:a5:25:95:80:d8:
         0e:61:79:0a:fc:14:a0:d5:a4:a6:42:d1:af:f3:ff:14:bc:14:
         4f:a0:99:ce:e3:2d:0d:8d:65:05:7f:5b:9b:3a:05:0d:99:e7:
         58:34:ba:bb:61:b4:e9:f3:24:c6:59:ea:20:0b:23:36:c5:d5:
         84:2c:c3:fc:04:c8:10:2f:4b:0f:f8:c0:c0:14:c2:8e:de:2b:
         58:98:45:a7:08:4b:0f:d7:91:ca:49:39:ac:e7:84:4d:8f:ba:
         09:f8
-----BEGIN CERTIFICATE-----
MIIDzzCCAzigAwIBAgIJAK+ii7kzrdqtMA0GCSqGSIb3DQEBBQUAMIGuMQswCQYD
VQQGEwJVUzETMBEGA1UECBMKQ2FsaWZvcm5pYTE9MDsGA1UEChM0WE1MIFNlY3Vy
aXR5IExpYnJhcnkgKGh0dHA6Ly93d3cuYWxla3NleS5jb20veG1sc2VjKTEQMA4G
A1UECxMHUm9vdCBDQTEWMBQGA1UEAxMNQWxla3NleSBTYW5pbjEhMB8GCSqGSIb3
DQEJARYSeG1sc2VjQGFsZWtzZXkuY29tMCAXDTE0MDUyMzE3NTIzOFoYDzIxMTQw
NDI5MTc1MjM4WjCBnDELMAkGA1UEBhMCVVMxEzARBgNVBAgTCkNhbGlmb3JuaWEx
PTA7BgNVBAoTNFhNTCBTZWN1cml0eSBMaWJyYXJ5IChodHRwOi8vd3d3LmFsZWtz
ZXkuY29tL3htbHNlYykxFjAUBgNVBAMTDUFsZWtzZXkgU2FuaW4xITAfBgkqhkiG
9w0BCQEWEnhtbHNlY0BhbGVrc2V5LmNvbTBcMA0GCSqGSIb3DQEBAQUAA0sAMEgC
QQCyuvKJ2CuUPD33ghPt4Q8MilesHxVbbpyKfmabrYVpDGVDmOKKp337qJUZZ95K
fwlXbR2j0zyKWJmvRxUx+PsTAgMBAAGjggFFMIIBQTAMBgNVHRMEBTADAQH/MCwG
CWCGSAGG+EIBDQQfFh1PcGVuU1NMIEdlbmVyYXRlZCBDZXJ0aWZpY2F0ZTAdBgNV
HQ4EFgQU/uTsUyTwlZXHELXhRLVdOWVa434wgeMGA1UdIwSB2zCB2IAUBrWkrKeq
dUTqFZxP3wWDT2oe/guhgbSkgbEwga4xCzAJBgNVBAYTAlVTMRMwEQYDVQQIEwpD
YWxpZm9ybmlhMT0wOwYDVQQKEzRYTUwgU2VjdXJpdHkgTGlicmFyeSAoaHR0cDov
L3d3dy5hbGVrc2V5LmNvbS94bWxzZWMpMRAwDgYDVQQLEwdSb290IENBMRYwFAYD
VQQDEw1BbGVrc2V5IFNhbmluMSEwHwYJKoZIhvcNAQkBFhJ4bWxzZWNAYWxla3Nl
eS5jb22CCQCvoou5M63arDANBgkqhkiG9w0BAQUFAAOBgQBuTAW63AgWqqUDPGi8
BiXbdKHhFP4J8qgkdv5WMa6SpSWVgNgOYXkK/BSg1aSmQtGv8/8UvBRPoJnO4y0N
jWUFf1ubOgUNmedYNLq7YbTp8yTGWeogCyM2xdWELMP8BMgQL0sP+MDAFMKO3itY
mEWnCEsP15HKSTms54RNj7oJ+A==
-----END CERTIFICATE-----
