Certificate:
    Data:
        Version: 3 (0x2)
        Serial Number: 12655831530416757426 (0xafa28bb933addab2)
    Signature Algorithm: sha1WithRSAEncryption
        Issuer: C=US, ST=California, O=XML Security Library (http://www.aleksey.com/xmlsec), CN=Aleksey Sanin/emailAddress=xmlsec@aleksey.com
        Validity
            Not Before: Mar  5 22:54:09 2015 GMT
            Not After : Feb  9 22:54:09 2115 GMT
        Subject: C=US, ST=California, O=XML Security Library (http://www.aleksey.com/xmlsec), OU=Test Third Level DSA 2048 Certificate, CN=Aleksey Sanin/emailAddress=xmlsec@aleksey.com
        Subject Public Key Info:
            Public Key Algorithm: dsaEncryption
                pub: 
                    00:aa:1d:6f:f5:53:c2:bb:6b:64:bd:3b:05:14:de:
                    4f:58:bf:17:35:cb:74:a1:c9:60:3c:8f:64:63:1f:
                    05:2c:32:84:67:53:16:e5:a9:b6:51:f1:5e:14:5c:
                    e3:8e:de:3e:3e:ac:e1:cf:80:6f:54:9a:86:ef:9b:
                    cd:9a:2c:df:9d:64:d6:dd:b1:48:f2:a2:69:ba:8b:
                    75:91:18:03:d9:e9:69:2b:65:bd:63:17:d7:90:48:
                    29:b3:bb:74:2f:ba:79:00:82:7f:96:14:3e:26:e2:
                    ae:14:e4:b5:cc:c9:4b:1d:9f:02:2f:e0:d2:0a:fe:
                    aa:d2:58:b0:8d:20:e3:4c:73:48:08:c5:2a:06:6a:
                    13:c4:59:b6:8f:4f:ac:3b:74:8f:07:87:53:64:dc:
                    b3:0d:a9:c5:c5:a9:a6:68:9f:1a:87:40:2e:36:9d:
                    79:9e:43:d8:5c:6e:7f:e3:c6:6a:aa:ff:90:33:a6:
                    00:c5:a6:60:00:39:72:25:f3:45:b0:d9:67:db:69:
                    bf:4d:f0:d3:e7:78:aa:30:fc:55:36:12:5d:52:25:
                    b2:e6:15:53:28:dd:c6:a5:2a:0d:91:cb:6a:ee:e0:
                    9c:3b:5c:93:20:7f:10:b7:29:6e:5b:1a:dc:fc:d6:
                    1b:38:cc:be:6e:e6:ff:cc:8b:c0:1f:3e:7b:44:37:
                    57:32
                P:   
                    00:de:1f:fa:4f:ad:29:09:d4:8a:62:1f:b2:eb:a4:
                    6d:eb:f4:78:8d:4a:0b:5e:2b:2b:c5:3b:54:ed:a7:
                    1b:72:37:96:67:44:5c:2a:d2:4c:ff:30:41:88:e3:
                    d2:77:e4:df:3b:17:b0:39:4c:d0:16:ce:97:b7:69:
                    56:ae:b7:92:df:02:e9:5a:9f:6a:70:05:be:c5:b5:
                    6b:ff:e3:81:26:a4:a1:06:7c:c4:9a:b3:dc:e6:5d:
                    7a:b2:16:56:6f:b2:ec:cf:fc:a6:bc:08:2f:66:95:
                    10:91:ff:10:93:14:ac:db:db:6c:ea:62:f0:ad:f7:
                    f8:fa:8f:fa:4d:ad:b0:eb:5f:f0:84:94:5a:17:1c:
                    11:b5:fb:66:9b:03:95:17:90:1c:be:9a:5e:a3:04:
                    47:05:2b:c3:12:fd:b5:d0:6f:53:d6:f5:ce:f3:fe:
                    50:d6:ad:f4:85:1f:c1:82:20:7d:c1:62:43:71:6f:
                    79:62:0c:36:59:1a:9f:7b:47:6b:97:ec:c9:7d:b2:
                    05:06:8b:9c:8b:63:4e:a1:35:46:2b:0e:ec:52:c8:
                    eb:b9:03:01:cd:0f:09:ff:55:44:9d:5d:a8:87:da:
                    cb:47:5f:66:60:3d:f9:b7:26:65:0f:3b:a6:13:79:
                    47:bb:3c:da:fc:5d:90:46:52:16:19:1d:71:59:c1:
                    c9:af
                Q:   
                    00:c0:ec:2c:22:81:0b:ff:bb:27:c7:06:56:22:5b:
                    30:4a:ae:ef:99:1e:c8:7d:98:7b:06:98:ca:41:97:
                    7c:bc:7d
                G:   
                    12:5d:71:1a:b6:f4:9b:22:cf:26:ab:eb:93:58:b7:
                    fa:34:e5:00:22:00:b9:89:31:14:62:bf:f0:d8:5f:
                    ac:ce:52:25:e6:d8:b5:cc:79:ee:97:bd:a3:ed:dd:
                    bf:0e:70:cd:50:b9:b0:42:76:32:95:f7:cd:92:c2:
                    d7:34:f6:b4:bf:5e:b0:5e:58:e1:49:8d:db:00:5b:
                    14:7e:7b:d8:8a:7b:86:2c:86:52:56:d5:80:a2:77:
                    9f:79:2d:55:d9:7c:0d:b0:aa:78:eb:3a:e1:b3:f9:
                    60:39:38:af:82:3b:85:65:69:bb:19:ec:6a:dd:5e:
                    7e:5b:ac:54:9e:f8:b3:31:48:96:37:e0:b7:16:c5:
                    06:64:35:0c:af:7a:4f:76:cc:b4:40:9e:07:53:91:
                    83:9a:8b:59:62:d1:71:de:67:17:a7:ce:fe:b6:56:
                    76:cd:79:7a:cc:17:07:52:92:e9:22:bc:30:99:38:
                    b6:94:82:2e:cc:b3:4e:e7:a2:3b:2d:36:56:cc:12:
                    48:03:4f:d5:36:ad:37:47:c6:4c:48:f5:b9:a9:49:
                    1e:63:95:ae:e9:c6:e5:f7:e6:a8:0d:bd:7c:f8:8c:
                    d8:01:e8:f2:20:e5:ec:e7:26:59:b3:76:61:b9:55:
                    e3:f0:f8:f2:14:d9:f0:29:5e:91:e3:d4:95:71:13:
                    b2
        X509v3 extensions:
            X509v3 Basic Constraints: 
                CA:TRUE
            Netscape Comment: 
                OpenSSL Generated Certificate
            X509v3 Subject Key Identifier: 
                D2:E0:AF:FD:F9:47:36:6C:DC:0C:73:66:DA:CE:FF:1E:B3:81:8A:9A
            X509v3 Authority Key Identifier: 
                keyid:FE:E4:EC:53:24:F0:95:95:C7:10:B5:E1:44:B5:5D:39:65:5A:E3:7E
                DirName:/C=US/ST=California/O=XML Security Library (http://www.aleksey.com/xmlsec)/OU=Root CA/CN=Aleksey Sanin/emailAddress=xmlsec@aleksey.com
                serial:AF:A2:8B:B9:33:AD:DA:AD

    Signature Algorithm: sha1WithRSAEncryption
         18:de:fe:a7:fd:0d:17:ca:cd:7e:06:b0:3d:cd:69:11:c4:67:
         63:10:cd:4e:d3:6d:63:4c:9b:02:1d:39:da:5f:e3:2d:84:e1:
         cf:fd:1f:ee:49:54:bb:85:57:4c:a6:18:f3:09:c4:f8:8c:e8:
         24:1e:99:cd:e8:2e:9f:cb:84:ab
-----BEGIN CERTIFICATE-----
MIIGmTCCBkOgAwIBAgIJAK+ii7kzrdqyMA0GCSqGSIb3DQEBBQUAMIGcMQswCQYD
VQQGEwJVUzETMBEGA1UECBMKQ2FsaWZvcm5pYTE9MDsGA1UEChM0WE1MIFNlY3Vy
aXR5IExpYnJhcnkgKGh0dHA6Ly93d3cuYWxla3NleS5jb20veG1sc2VjKTEWMBQG
A1UEAxMNQWxla3NleSBTYW5pbjEhMB8GCSqGSIb3DQEJARYSeG1sc2VjQGFsZWtz
ZXkuY29tMCAXDTE1MDMwNTIyNTQwOVoYDzIxMTUwMjA5MjI1NDA5WjCBzDELMAkG
A1UEBhMCVVMxEzARBgNVBAgTCkNhbGlmb3JuaWExPTA7BgNVBAoTNFhNTCBTZWN1
cml0eSBMaWJyYXJ5IChodHRwOi8vd3d3LmFsZWtzZXkuY29tL3htbHNlYykxLjAs
BgNVBAsTJVRlc3QgVGhpcmQgTGV2ZWwgRFNBIDIwNDggQ2VydGlmaWNhdGUxFjAU
BgNVBAMTDUFsZWtzZXkgU2FuaW4xITAfBgkqhkiG9w0BCQEWEnhtbHNlY0BhbGVr
c2V5LmNvbTCCA0cwggI5BgcqhkjOOAQBMIICLAKCAQEA3h/6T60pCdSKYh+y66Rt
6/R4jUoLXisrxTtU7acbcjeWZ0RcKtJM/zBBiOPSd+TfOxewOUzQFs6Xt2lWrreS
3wLpWp9qcAW+xbVr/+OBJqShBnzEmrPc5l16shZWb7Lsz/ymvAgvZpUQkf8QkxSs
29ts6mLwrff4+o/6Ta2w61/whJRaFxwRtftmmwOVF5AcvppeowRHBSvDEv210G9T
1vXO8/5Q1q30hR/BgiB9wWJDcW95Ygw2WRqfe0drl+zJfbIFBouci2NOoTVGKw7s
UsjruQMBzQ8J/1VEnV2oh9rLR19mYD35tyZlDzumE3lHuzza/F2QRlIWGR1xWcHJ
rwIhAMDsLCKBC/+7J8cGViJbMEqu75keyH2YewaYykGXfLx9AoIBABJdcRq29Jsi
zyar65NYt/o05QAiALmJMRRiv/DYX6zOUiXm2LXMee6XvaPt3b8OcM1QubBCdjKV
982Swtc09rS/XrBeWOFJjdsAWxR+e9iKe4YshlJW1YCid595LVXZfA2wqnjrOuGz
+WA5OK+CO4VlabsZ7GrdXn5brFSe+LMxSJY34LcWxQZkNQyvek92zLRAngdTkYOa
i1li0XHeZxenzv62VnbNeXrMFwdSkukivDCZOLaUgi7Ms07nojstNlbMEkgDT9U2
rTdHxkxI9bmpSR5jla7pxuX35qgNvXz4jNgB6PIg5eznJlmzdmG5VePw+PIU2fAp
XpHj1JVxE7IDggEGAAKCAQEAqh1v9VPCu2tkvTsFFN5PWL8XNct0oclgPI9kYx8F
LDKEZ1MW5am2UfFeFFzjjt4+Pqzhz4BvVJqG75vNmizfnWTW3bFI8qJpuot1kRgD
2elpK2W9YxfXkEgps7t0L7p5AIJ/lhQ+JuKuFOS1zMlLHZ8CL+DSCv6q0liwjSDj
THNICMUqBmoTxFm2j0+sO3SPB4dTZNyzDanFxammaJ8ah0AuNp15nkPYXG5/48Zq
qv+QM6YAxaZgADlyJfNFsNln22m/TfDT53iqMPxVNhJdUiWy5hVTKN3GpSoNkctq
7uCcO1yTIH8QtyluWxrc/NYbOMy+bub/zIvAHz57RDdXMqOCAUUwggFBMAwGA1Ud
EwQFMAMBAf8wLAYJYIZIAYb4QgENBB8WHU9wZW5TU0wgR2VuZXJhdGVkIENlcnRp
ZmljYXRlMB0GA1UdDgQWBBTS4K/9+Uc2bNwMc2bazv8es4GKmjCB4wYDVR0jBIHb
MIHYgBT+5OxTJPCVlccQteFEtV05ZVrjfqGBtKSBsTCBrjELMAkGA1UEBhMCVVMx
EzARBgNVBAgTCkNhbGlmb3JuaWExPTA7BgNVBAoTNFhNTCBTZWN1cml0eSBMaWJy
YXJ5IChodHRwOi8vd3d3LmFsZWtzZXkuY29tL3htbHNlYykxEDAOBgNVBAsTB1Jv
b3QgQ0ExFjAUBgNVBAMTDUFsZWtzZXkgU2FuaW4xITAfBgkqhkiG9w0BCQEWEnht
bHNlY0BhbGVrc2V5LmNvbYIJAK+ii7kzrdqtMA0GCSqGSIb3DQEBBQUAA0EAGN7+
p/0NF8rNfgawPc1pEcRnYxDNTtNtY0ybAh052l/jLYThz/0f7klUu4VXTKYY8wnE
+IzoJB6Zzegun8uEqw==
-----END CERTIFICATE-----
