Certificate:
    Data:
        Version: 3 (0x2)
        Serial Number: 12655831530416757427 (0xafa28bb933addab3)
    Signature Algorithm: sha1WithRSAEncryption
        Issuer: C=US, ST=California, O=XML Security Library (http://www.aleksey.com/xmlsec), CN=Aleksey Sanin/emailAddress=xmlsec@aleksey.com
        Validity
            Not Before: Mar  5 22:54:53 2015 GMT
            Not After : Feb  9 22:54:53 2115 GMT
        Subject: C=US, ST=California, O=XML Security Library (http://www.aleksey.com/xmlsec), OU=Test Third Level DSA 3072 Certificate, CN=Aleksey Sanin/emailAddress=xmlsec@aleksey.com
        Subject Public Key Info:
            Public Key Algorithm: dsaEncryption
                pub: 
                    00:c9:8a:8e:a6:4e:08:f4:fe:68:37:5d:30:e8:ce:
                    e2:fa:bf:be:da:dd:c9:60:95:f5:3a:18:de:66:c6:
                    7f:6b:87:d2:5d:44:87:bb:8f:34:09:9e:f5:3c:ab:
                    44:e7:a8:59:e6:71:3a:f8:ae:67:63:4b:95:77:fb:
                    55:c7:20:63:bf:35:40:2e:2f:7c:35:90:f5:b5:2a:
                    64:dc:fc:7b:98:7a:b5:be:37:9a:66:ed:9c:97:ef:
                    56:c1:5a:47:f1:d1:34:16:8c:e5:de:0e:7a:12:65:
                    0d:4d:06:e8:fc:1a:41:db:70:6d:1f:20:22:50:1d:
                    dd:9f:d6:af:40:27:c7:45:30:4f:db:0a:4d:4c:8b:
                    f6:3f:8c:9f:4a:af:40:04:28:f4:30:9e:dd:12:66:
                    17:61:a8:ea:7a:12:bd:13:22:d6:ec:1e:df:5b:ae:
                    e7:38:e4:69:ae:c9:91:a0:92:7f:b0:10:8e:c6:df:
                    1e:c1:2f:8f:38:51:aa:65:36:8d:2c:17:8d:ed:5a:
                    60:77:e5:91:1f:7f:15:8e:60:59:4b:2e:4a:17:4e:
                    56:67:4a:75:d6:ef:3c:7c:a1:74:ce:21:b9:fd:2b:
                    7d:c0:f4:d8:17:b8:3a:4c:83:b2:28:b9:48:74:15:
                    85:76:75:58:ef:36:ac:24:f1:d6:6b:38:df:a9:02:
                    d5:7b:09:0b:cd:ea:9c:de:3e:0f:e8:04:9a:d4:95:
                    5f:cd:3b:68:f4:06:e6:6f:97:d0:11:bf:62:58:92:
                    b6:6e:7c:5b:66:30:d0:5b:a1:fe:a3:f9:66:c5:9c:
                    8a:9b:db:b5:c2:2e:5d:5a:ef:44:35:58:a0:af:13:
                    ca:83:dc:b8:99:1f:1f:fb:96:ca:dc:69:35:7c:29:
                    91:7c:77:99:33:81:74:48:48:5b:39:36:46:05:c6:
                    bb:bf:2e:30:4f:ef:be:c5:2c:7d:b7:41:35:b6:81:
                    eb:4f:4b:dc:84:c5:4c:3d:92:d7:85:68:5e:32:39:
                    40:79:2a:07:84:95:e6:65:4f:e4
                P:   
                    00:e3:88:32:2a:76:4d:35:f3:33:d3:e1:50:2b:f3:
                    a9:62:4a:d2:9b:5f:da:5a:5c:cc:dc:1d:4c:58:5b:
                    27:14:c3:41:d2:bf:b9:15:bc:bf:11:87:ab:01:ff:
                    a4:fc:f3:42:47:e8:fb:d7:d5:49:89:4f:cd:f8:4d:
                    98:bd:88:62:e8:01:ca:a4:a2:db:e7:b2:16:2f:5b:
                    5a:14:77:98:6e:bc:9f:f0:38:0c:55:5e:b3:a5:a2:
                    41:8f:fe:92:64:3d:62:89:62:f2:7f:c7:32:80:dd:
                    2d:d2:7f:5c:f4:df:18:67:c6:b8:19:ef:49:d1:7d:
                    4a:f7:88:e1:b6:cb:5e:30:d2:1f:16:1b:f9:72:79:
                    1a:83:07:5a:af:91:ac:54:5d:78:ea:46:01:82:e7:
                    dc:02:f4:0b:53:dc:71:13:e9:ed:a8:64:1e:6d:81:
                    76:38:7a:41:0b:35:9b:5f:79:3b:01:cc:7a:c3:f5:
                    6a:c0:98:e5:2b:87:d1:52:54:8e:81:76:6b:78:c9:
                    6e:da:cf:7a:59:21:a8:d8:bc:59:51:81:23:ef:69:
                    15:66:f9:d5:6a:7c:20:9a:e1:e8:b8:4e:5b:86:2a:
                    cb:f6:d2:90:ed:97:6f:60:a0:45:e0:a8:b4:51:a6:
                    5a:2c:6e:db:3e:02:a7:14:1f:5b:92:30:d9:03:ee:
                    69:fa:88:71:9c:5a:61:d3:68:12:ff:87:4d:07:da:
                    b0:17:92:d8:70:c1:3c:d6:b3:f6:75:ea:08:9d:5a:
                    43:f8:09:b5:f7:8d:32:9e:90:48:38:ec:6f:51:51:
                    e4:cc:bf:4f:0d:ef:56:4f:d4:58:a3:6a:a2:b5:6f:
                    59:7b:40:98:93:32:fa:26:57:1a:08:b4:0b:fc:5b:
                    89:a1:5e:3e:c5:94:43:9d:56:47:34:12:28:09:74:
                    27:48:04:6e:ce:76:45:dc:15:cf:14:6b:7a:fa:f5:
                    ce:4a:1d:07:58:61:5d:60:8a:4d:09:00:20:16:f4:
                    31:b7:e3:1e:4c:c8:e8:8d:3e:0f
                Q:   
                    00:c2:88:7b:78:1e:fc:98:82:4e:c4:b1:14:1c:60:
                    35:be:9b:c8:3d:81:77:32:ea:a4:d0:f1:2f:f1:38:
                    b8:59:df
                G:   
                    00:8b:7a:a1:1c:76:49:78:e5:33:00:c6:0a:72:85:
                    5f:0b:dc:18:1f:c5:90:3a:e2:d0:d0:07:fa:4c:50:
                    67:27:17:54:65:59:ef:fa:54:ec:31:66:b6:48:9f:
                    2a:e9:74:0c:1e:07:d9:2e:b5:b8:ea:61:44:f6:41:
                    6d:68:33:43:74:21:0f:40:d5:b9:ce:ce:4b:24:49:
                    a0:31:04:72:00:90:8f:67:a9:38:0b:79:01:96:97:
                    38:be:cf:c5:94:3a:c3:e9:7f:5a:6e:39:11:54:f3:
                    c5:19:7f:b4:ba:15:17:00:84:e8:55:88:5e:63:b7:
                    98:88:ad:80:39:81:05:6c:0a:1f:92:2e:92:be:92:
                    d9:e3:c7:3b:f3:f7:fd:6b:07:41:db:e0:1c:f0:e2:
                    5c:64:c4:5a:ff:96:01:d6:42:d0:b3:f6:f0:99:04:
                    06:ec:b0:f1:c7:2e:9c:46:ed:50:3a:27:82:36:29:
                    7c:f6:5d:37:b2:32:fd:38:f6:b7:d6:52:fe:12:20:
                    38:0b:b3:95:f0:72:13:3e:3d:69:2e:3c:52:c8:73:
                    f2:cb:39:8f:28:7a:60:f7:af:23:86:2a:0d:87:a1:
                    f1:85:15:bf:a8:6c:7f:b7:b6:db:15:b1:d4:fb:60:
                    d5:3b:6d:70:0a:35:3f:ae:27:06:e8:d0:04:fd:db:
                    1f:46:58:36:e4:0b:77:3a:2c:9f:c1:e6:41:29:a4:
                    b6:02:11:ae:9b:45:63:32:7a:92:33:2e:af:19:0c:
                    f7:01:87:94:ab:f5:bf:7c:cc:cc:01:bc:83:00:29:
                    e9:0e:7a:71:55:ec:2b:25:a5:7c:41:7e:30:c1:8a:
                    ea:34:d7:26:8f:d9:43:f9:ac:16:11:92:43:fb:99:
                    46:3c:70:7a:c6:bd:5e:3d:d0:de:16:7e:b5:67:10:
                    5a:dd:3a:c9:ab:f6:ff:15:d4:3e:4a:39:ce:04:6e:
                    a2:64:4a:35:51:48:7d:93:da:84:12:22:11:3d:19:
                    c9:5a:23:e0:a8:63:f4:bb:c9:13
        X509v3 extensions:
            X509v3 Basic Constraints: 
                CA:TRUE
            Netscape Comment: 
                OpenSSL Generated Certificate
            X509v3 Subject Key Identifier: 
                94:81:05:72:34:53:0F:51:FC:63:B8:DE:59:F8:AC:6A:BB:F1:46:72
            X509v3 Authority Key Identifier: 
                keyid:FE:E4:EC:53:24:F0:95:95:C7:10:B5:E1:44:B5:5D:39:65:5A:E3:7E
                DirName:/C=US/ST=California/O=XML Security Library (http://www.aleksey.com/xmlsec)/OU=Root CA/CN=Aleksey Sanin/emailAddress=xmlsec@aleksey.com
                serial:AF:A2:8B:B9:33:AD:DA:AD

    Signature Algorithm: sha1WithRSAEncryption
         0f:77:ba:95:c6:98:64:a0:d2:1c:81:a6:1b:bc:e8:a9:30:51:
         59:da:7a:1e:06:4e:dc:76:bf:50:b5:a8:13:c7:e0:00:21:fe:
         82:a9:cc:86:29:4e:7d:ed:ee:e0:2c:89:39:3b:8a:6e:de:6a:
         96:e5:b1:70:51:7b:39:11:a0:ae
-----BEGIN CERTIFICATE-----
MIIIGjCCB8SgAwIBAgIJAK+ii7kzrdqzMA0GCSqGSIb3DQEBBQUAMIGcMQswCQYD
VQQGEwJVUzETMBEGA1UECBMKQ2FsaWZvcm5pYTE9MDsGA1UEChM0WE1MIFNlY3Vy
aXR5IExpYnJhcnkgKGh0dHA6Ly93d3cuYWxla3NleS5jb20veG1sc2VjKTEWMBQG
A1UEAxMNQWxla3NleSBTYW5pbjEhMB8GCSqGSIb3DQEJARYSeG1sc2VjQGFsZWtz
ZXkuY29tMCAXDTE1MDMwNTIyNTQ1M1oYDzIxMTUwMjA5MjI1NDUzWjCBzDELMAkG
A1UEBhMCVVMxEzARBgNVBAgTCkNhbGlmb3JuaWExPTA7BgNVBAoTNFhNTCBTZWN1
cml0eSBMaWJyYXJ5IChodHRwOi8vd3d3LmFsZWtzZXkuY29tL3htbHNlYykxLjAs
BgNVBAsTJVRlc3QgVGhpcmQgTGV2ZWwgRFNBIDMwNzIgQ2VydGlmaWNhdGUxFjAU
BgNVBAMTDUFsZWtzZXkgU2FuaW4xITAfBgkqhkiG9w0BCQEWEnhtbHNlY0BhbGVr
c2V5LmNvbTCCBMgwggM6BgcqhkjOOAQBMIIDLQKCAYEA44gyKnZNNfMz0+FQK/Op
YkrSm1/aWlzM3B1MWFsnFMNB0r+5Fby/EYerAf+k/PNCR+j719VJiU/N+E2YvYhi
6AHKpKLb57IWL1taFHeYbryf8DgMVV6zpaJBj/6SZD1iiWLyf8cygN0t0n9c9N8Y
Z8a4Ge9J0X1K94jhtsteMNIfFhv5cnkagwdar5GsVF146kYBgufcAvQLU9xxE+nt
qGQebYF2OHpBCzWbX3k7Acx6w/VqwJjlK4fRUlSOgXZreMlu2s96WSGo2LxZUYEj
72kVZvnVanwgmuHouE5bhirL9tKQ7ZdvYKBF4Ki0UaZaLG7bPgKnFB9bkjDZA+5p
+ohxnFph02gS/4dNB9qwF5LYcME81rP2deoInVpD+Am1940ynpBIOOxvUVHkzL9P
De9WT9RYo2qitW9Ze0CYkzL6JlcaCLQL/FuJoV4+xZRDnVZHNBIoCXQnSARuznZF
3BXPFGt6+vXOSh0HWGFdYIpNCQAgFvQxt+MeTMjojT4PAiEAwoh7eB78mIJOxLEU
HGA1vpvIPYF3Muqk0PEv8Ti4Wd8CggGBAIt6oRx2SXjlMwDGCnKFXwvcGB/FkDri
0NAH+kxQZycXVGVZ7/pU7DFmtkifKul0DB4H2S61uOphRPZBbWgzQ3QhD0DVuc7O
SyRJoDEEcgCQj2epOAt5AZaXOL7PxZQ6w+l/Wm45EVTzxRl/tLoVFwCE6FWIXmO3
mIitgDmBBWwKH5Iukr6S2ePHO/P3/WsHQdvgHPDiXGTEWv+WAdZC0LP28JkEBuyw
8ccunEbtUDongjYpfPZdN7Iy/Tj2t9ZS/hIgOAuzlfByEz49aS48Ushz8ss5jyh6
YPevI4YqDYeh8YUVv6hsf7e22xWx1Ptg1TttcAo1P64nBujQBP3bH0ZYNuQLdzos
n8HmQSmktgIRrptFYzJ6kjMurxkM9wGHlKv1v3zMzAG8gwAp6Q56cVXsKyWlfEF+
MMGK6jTXJo/ZQ/msFhGSQ/uZRjxwesa9Xj3Q3hZ+tWcQWt06yav2/xXUPko5zgRu
omRKNVFIfZPahBIiET0ZyVoj4Khj9LvJEwOCAYYAAoIBgQDJio6mTgj0/mg3XTDo
zuL6v77a3clglfU6GN5mxn9rh9JdRIe7jzQJnvU8q0TnqFnmcTr4rmdjS5V3+1XH
IGO/NUAuL3w1kPW1KmTc/HuYerW+N5pm7ZyX71bBWkfx0TQWjOXeDnoSZQ1NBuj8
GkHbcG0fICJQHd2f1q9AJ8dFME/bCk1Mi/Y/jJ9Kr0AEKPQwnt0SZhdhqOp6Er0T
ItbsHt9bruc45GmuyZGgkn+wEI7G3x7BL484UaplNo0sF43tWmB35ZEffxWOYFlL
LkoXTlZnSnXW7zx8oXTOIbn9K33A9NgXuDpMg7IouUh0FYV2dVjvNqwk8dZrON+p
AtV7CQvN6pzePg/oBJrUlV/NO2j0BuZvl9ARv2JYkrZufFtmMNBbof6j+WbFnIqb
27XCLl1a70Q1WKCvE8qD3LiZHx/7lsrcaTV8KZF8d5kzgXRISFs5NkYFxru/LjBP
777FLH23QTW2getPS9yExUw9kteFaF4yOUB5KgeEleZlT+SjggFFMIIBQTAMBgNV
HRMEBTADAQH/MCwGCWCGSAGG+EIBDQQfFh1PcGVuU1NMIEdlbmVyYXRlZCBDZXJ0
aWZpY2F0ZTAdBgNVHQ4EFgQUlIEFcjRTD1H8Y7jeWfisarvxRnIwgeMGA1UdIwSB
2zCB2IAU/uTsUyTwlZXHELXhRLVdOWVa436hgbSkgbEwga4xCzAJBgNVBAYTAlVT
MRMwEQYDVQQIEwpDYWxpZm9ybmlhMT0wOwYDVQQKEzRYTUwgU2VjdXJpdHkgTGli
cmFyeSAoaHR0cDovL3d3dy5hbGVrc2V5LmNvbS94bWxzZWMpMRAwDgYDVQQLEwdS
b290IENBMRYwFAYDVQQDEw1BbGVrc2V5IFNhbmluMSEwHwYJKoZIhvcNAQkBFhJ4
bWxzZWNAYWxla3NleS5jb22CCQCvoou5M63arTANBgkqhkiG9w0BAQUFAANBAA93
upXGmGSg0hyBphu86KkwUVnaeh4GTtx2v1C1qBPH4AAh/oKpzIYpTn3t7uAsiTk7
im7eapblsXBRezkRoK4=
-----END CERTIFICATE-----
