Certificate:
    Data:
        Version: 3 (0x2)
        Serial Number: 12655831530416757428 (0xafa28bb933addab4)
    Signature Algorithm: sha1WithRSAEncryption
        Issuer: C=US, ST=California, O=XML Security Library (http://www.aleksey.com/xmlsec), CN=Aleksey Sanin/emailAddress=xmlsec@aleksey.com
        Validity
            Not Before: Jan 29 17:26:12 2016 GMT
            Not After : Jan  5 17:26:12 2116 GMT
        Subject: C=US, ST=California, O=XML Security Library (http://www.aleksey.com/xmlsec), CN=ECDSA secp256k1 Key/emailAddress=xmlsec@aleksey.com
        Subject Public Key Info:
            Public Key Algorithm: id-ecPublicKey
                Public-Key: (256 bit)
                pub: 
                    04:67:db:9d:7a:d1:ed:b8:c6:06:c2:ba:2c:8a:36:
                    2e:43:0f:cf:d3:a1:a9:6e:94:e0:45:30:84:0f:b4:
                    c1:b5:db:2f:34:6e:7e:e6:9a:52:e1:87:92:19:7d:
                    2c:36:b9:d7:6f:1d:d7:6d:3d:8f:6e:62:5a:0c:8b:
                    42:8c:60:30:b3
                ASN1 OID: secp256k1
        X509v3 extensions:
            X509v3 Basic Constraints: 
                CA:TRUE
            Netscape Comment: 
                OpenSSL Generated Certificate
            X509v3 Subject Key Identifier: 
                3C:95:C7:89:6D:47:4A:A7:70:6E:E7:29:11:28:B5:25:E2:09:1C:A0
            X509v3 Authority Key Identifier: 
                keyid:FE:E4:EC:53:24:F0:95:95:C7:10:B5:E1:44:B5:5D:39:65:5A:E3:7E
                DirName:/C=US/ST=California/O=XML Security Library (http://www.aleksey.com/xmlsec)/OU=Root CA/CN=Aleksey Sanin/emailAddress=xmlsec@aleksey.com
                serial:AF:A2:8B:B9:33:AD:DA:AD

    Signature Algorithm: sha1WithRSAEncryption
         5c:1e:03:4d:d0:a3:77:b7:06:f5:38:31:3d:f0:9e:c9:fb:55:
         9b:a4:4c:8e:b5:7b:0c:ab:18:24:2c:84:e7:39:9e:0d:d3:b8:
         d7:cd:70:0b:b0:87:00:e7:4e:41:c4:6a:b6:f0:bc:6d:ce:98:
         92:25:fb:20:ea:81:5b:53:0f:d3
-----BEGIN CERTIFICATE-----
MIIDfDCCAyagAwIBAgIJAK+ii7kzrdq0MA0GCSqGSIb3DQEBBQUAMIGcMQswCQYD
VQQGEwJVUzETMBEGA1UECBMKQ2FsaWZvcm5pYTE9MDsGA1UEChM0WE1MIFNlY3Vy
aXR5IExpYnJhcnkgKGh0dHA6Ly93d3cuYWxla3NleS5jb20veG1sc2VjKTEWMBQG
A1UEAxMNQWxla3NleSBTYW5pbjEhMB8GCSqGSIb3DQEJARYSeG1sc2VjQGFsZWtz
ZXkuY29tMCAXDTE2MDEyOTE3MjYxMloYDzIxMTYwMTA1MTcyNjEyWjCBojELMAkG
A1UEBhMCVVMxEzARBgNVBAgTCkNhbGlmb3JuaWExPTA7BgNVBAoTNFhNTCBTZWN1
cml0eSBMaWJyYXJ5IChodHRwOi8vd3d3LmFsZWtzZXkuY29tL3htbHNlYykxHDAa
BgNVBAMTE0VDRFNBIHNlY3AyNTZrMSBLZXkxITAfBgkqhkiG9w0BCQEWEnhtbHNl
Y0BhbGVrc2V5LmNvbTBWMBAGByqGSM49AgEGBSuBBAAKA0IABGfbnXrR7bjGBsK6
LIo2LkMPz9OhqW6U4EUwhA+0wbXbLzRufuaaUuGHkhl9LDa5128d1209j25iWgyL
QoxgMLOjggFFMIIBQTAMBgNVHRMEBTADAQH/MCwGCWCGSAGG+EIBDQQfFh1PcGVu
U1NMIEdlbmVyYXRlZCBDZXJ0aWZpY2F0ZTAdBgNVHQ4EFgQUPJXHiW1HSqdwbucp
ESi1JeIJHKAwgeMGA1UdIwSB2zCB2IAU/uTsUyTwlZXHELXhRLVdOWVa436hgbSk
gbEwga4xCzAJBgNVBAYTAlVTMRMwEQYDVQQIEwpDYWxpZm9ybmlhMT0wOwYDVQQK
EzRYTUwgU2VjdXJpdHkgTGlicmFyeSAoaHR0cDovL3d3dy5hbGVrc2V5LmNvbS94
bWxzZWMpMRAwDgYDVQQLEwdSb290IENBMRYwFAYDVQQDEw1BbGVrc2V5IFNhbmlu
MSEwHwYJKoZIhvcNAQkBFhJ4bWxzZWNAYWxla3NleS5jb22CCQCvoou5M63arTAN
BgkqhkiG9w0BAQUFAANBAFweA03Qo3e3BvU4MT3wnsn7VZukTI61ewyrGCQshOc5
ng3TuNfNcAuwhwDnTkHEarbwvG3OmJIl+yDqgVtTD9M=
-----END CERTIFICATE-----
