Certificate:
    Data:
        Version: 3 (0x2)
        Serial Number: 12655831530416757423 (0xafa28bb933addaaf)
    Signature Algorithm: sha1WithRSAEncryption
        Issuer: C=US, ST=California, O=XML Security Library (http://www.aleksey.com/xmlsec), CN=Aleksey Sanin/emailAddress=xmlsec@aleksey.com
        Validity
            Not Before: May 23 17:55:34 2014 GMT
            Not After : Apr 29 17:55:34 2114 GMT
        Subject: C=US, ST=California, O=XML Security Library (http://www.aleksey.com/xmlsec), OU=Test Third Level RSA Certificate, CN=Aleksey Sanin/emailAddress=xmlsec@aleksey.com
        Subject Public Key Info:
            Public Key Algorithm: rsaEncryption
                Public-Key: (512 bit)
                Modulus:
                    00:d3:d0:6d:0f:76:9e:56:de:83:54:39:24:d1:d2:
                    3b:56:1e:cb:8e:a7:67:b1:89:96:d2:d6:c3:57:1c:
                    4a:fa:7b:a6:7b:e6:7d:49:be:33:9d:b5:0a:91:69:
                    7e:be:04:00:4d:d4:54:13:28:53:d8:ff:86:aa:b7:
                    74:50:1c:d8:7d
                Exponent: 65537 (0x10001)
        X509v3 extensions:
            X509v3 Basic Constraints: 
                CA:TRUE
            Netscape Comment: 
                OpenSSL Generated Certificate
            X509v3 Subject Key Identifier: 
                D7:F4:C6:46:77:CE:37:04:23:AD:29:54:FB:B0:0E:A4:CC:43:28:19
            X509v3 Authority Key Identifier: 
                keyid:FE:E4:EC:53:24:F0:95:95:C7:10:B5:E1:44:B5:5D:39:65:5A:E3:7E
                DirName:/C=US/ST=California/O=XML Security Library (http://www.aleksey.com/xmlsec)/OU=Root CA/CN=Aleksey Sanin/emailAddress=xmlsec@aleksey.com
                serial:AF:A2:8B:B9:33:AD:DA:AD

    Signature Algorithm: sha1WithRSAEncryption
         0e:5c:18:f4:c8:80:a9:d5:19:87:5e:a9:d4:96:ca:69:af:22:
         c2:5b:7a:4a:04:3d:5d:91:be:07:59:aa:ce:ed:18:c0:d7:22:
         49:7c:18:d7:b2:ca:c4:46:7d:39:92:90:5c:ad:17:f3:a2:ee:
         2b:dc:30:a0:40:53:e1:8f:18:1a
-----BEGIN CERTIFICATE-----
MIIDpzCCA1GgAwIBAgIJAK+ii7kzrdqvMA0GCSqGSIb3DQEBBQUAMIGcMQswCQYD
VQQGEwJVUzETMBEGA1UECBMKQ2FsaWZvcm5pYTE9MDsGA1UEChM0WE1MIFNlY3Vy
aXR5IExpYnJhcnkgKGh0dHA6Ly93d3cuYWxla3NleS5jb20veG1sc2VjKTEWMBQG
A1UEAxMNQWxla3NleSBTYW5pbjEhMB8GCSqGSIb3DQEJARYSeG1sc2VjQGFsZWtz
ZXkuY29tMCAXDTE0MDUyMzE3NTUzNFoYDzIxMTQwNDI5MTc1NTM0WjCBxzELMAkG
A1UEBhMCVVMxEzARBgNVBAgTCkNhbGlmb3JuaWExPTA7BgNVBAoTNFhNTCBTZWN1
cml0eSBMaWJyYXJ5IChodHRwOi8vd3d3LmFsZWtzZXkuY29tL3htbHNlYykxKTAn
BgNVBAsTIFRlc3QgVGhpcmQgTGV2ZWwgUlNBIENlcnRpZmljYXRlMRYwFAYDVQQD
Ew1BbGVrc2V5IFNhbmluMSEwHwYJKoZIhvcNAQkBFhJ4bWxzZWNAYWxla3NleS5j
b20wXDANBgkqhkiG9w0BAQEFAANLADBIAkEA09BtD3aeVt6DVDkk0dI7Vh7Ljqdn
sYmW0tbDVxxK+nume+Z9Sb4znbUKkWl+vgQATdRUEyhT2P+Gqrd0UBzYfQIDAQAB
o4IBRTCCAUEwDAYDVR0TBAUwAwEB/zAsBglghkgBhvhCAQ0EHxYdT3BlblNTTCBH
ZW5lcmF0ZWQgQ2VydGlmaWNhdGUwHQYDVR0OBBYEFNf0xkZ3zjcEI60pVPuwDqTM
QygZMIHjBgNVHSMEgdswgdiAFP7k7FMk8JWVxxC14US1XTllWuN+oYG0pIGxMIGu
MQswCQYDVQQGEwJVUzETMBEGA1UECBMKQ2FsaWZvcm5pYTE9MDsGA1UEChM0WE1M
IFNlY3VyaXR5IExpYnJhcnkgKGh0dHA6Ly93d3cuYWxla3NleS5jb20veG1sc2Vj
KTEQMA4GA1UECxMHUm9vdCBDQTEWMBQGA1UEAxMNQWxla3NleSBTYW5pbjEhMB8G
CSqGSIb3DQEJARYSeG1sc2VjQGFsZWtzZXkuY29tggkAr6KLuTOt2q0wDQYJKoZI
hvcNAQEFBQADQQAOXBj0yICp1RmHXqnUlsppryLCW3pKBD1dkb4HWarO7RjA1yJJ
fBjXssrERn05kpBcrRfzou4r3DCgQFPhjxga
-----END CERTIFICATE-----
