Certificate:
    Data:
        Version: 3 (0x2)
        Serial Number: 12655831530416757420 (0xafa28bb933addaac)
    Signature Algorithm: sha1WithRSAEncryption
        Issuer: C=US, ST=California, O=XML Security Library (http://www.aleksey.com/xmlsec), OU=Root CA, CN=Aleksey Sanin/emailAddress=xmlsec@aleksey.com
        Validity
            Not Before: May 23 17:50:59 2014 GMT
            Not After : Apr 29 17:50:59 2114 GMT
        Subject: C=US, ST=California, O=XML Security Library (http://www.aleksey.com/xmlsec), OU=Root CA, CN=Aleksey Sanin/emailAddress=xmlsec@aleksey.com
        Subject Public Key Info:
            Public Key Algorithm: rsaEncryption
                Public-Key: (1024 bit)
                Modulus:
                    00:b5:8e:0c:08:d8:ff:aa:b3:b3:56:e7:b1:d4:10:
                    ff:3e:e0:98:4c:30:ce:2c:b5:63:b6:92:97:42:d7:
                    90:3e:ac:b4:92:03:30:b9:08:11:c1:d3:67:20:22:
                    07:41:b9:c5:28:be:34:5e:8c:80:08:95:56:28:ce:
                    db:d0:b9:2f:58:93:5e:c9:5c:d7:3e:a1:04:f5:93:
                    e6:37:15:86:52:35:5c:af:ba:68:c1:3e:ef:f1:5e:
                    d2:d9:07:e5:52:7a:fc:66:f4:78:5d:6c:24:64:9f:
                    44:60:a3:61:7a:78:a3:80:9e:72:60:3a:d7:09:67:
                    6f:0b:e7:e7:8c:18:ef:d8:b7
                Exponent: 65537 (0x10001)
        X509v3 extensions:
            X509v3 Subject Key Identifier: 
                06:B5:A4:AC:A7:AA:75:44:EA:15:9C:4F:DF:05:83:4F:6A:1E:FE:0B
            X509v3 Authority Key Identifier: 
                keyid:06:B5:A4:AC:A7:AA:75:44:EA:15:9C:4F:DF:05:83:4F:6A:1E:FE:0B
                DirName:/C=US/ST=California/O=XML Security Library (http://www.aleksey.com/xmlsec)/OU=Root CA/CN=Aleksey Sanin/emailAddress=xmlsec@aleksey.com
                serial:AF:A2:8B:B9:33:AD:DA:AC

            X509v3 Basic Constraints: 
                CA:TRUE
    Signature Algorithm: sha1WithRSAEncryption
         46:96:fc:e9:13:ff:72:4e:79:5f:e3:6e:9d:77:88:5f:cd:62:
         ef:ad:db:8f:b6:75:54:9c:05:6c:0f:d0:7e:ea:73:c6:7a:89:
         d8:83:ff:97:10:bc:63:12:77:06:9d:88:24:c2:3b:ac:2f:6b:
         d2:9a:1a:e3:56:71:23:9a:c6:1e:2a:7d:ec:3a:60:b3:13:c5:
         f6:59:11:52:62:81:05:08:e4:20:23:aa:d7:0f:f8:77:60:d1:
         22:70:68:a9:7b:6d:0f:ed:16:b2:a0:df:34:35:4a:fb:b9:12:
         13:4e:f2:b6:7d:d1:cc:70:a3:8f:48:2f:d0:f7:71:9a:e0:ac:
         47:f1
-----BEGIN CERTIFICATE-----
MIID9zCCA2CgAwIBAgIJAK+ii7kzrdqsMA0GCSqGSIb3DQEBBQUAMIGuMQswCQYD
VQQGEwJVUzETMBEGA1UECBMKQ2FsaWZvcm5pYTE9MDsGA1UEChM0WE1MIFNlY3Vy
aXR5IExpYnJhcnkgKGh0dHA6Ly93d3cuYWxla3NleS5jb20veG1sc2VjKTEQMA4G
A1UECxMHUm9vdCBDQTEWMBQGA1UEAxMNQWxla3NleSBTYW5pbjEhMB8GCSqGSIb3
DQEJARYSeG1sc2VjQGFsZWtzZXkuY29tMCAXDTE0MDUyMzE3NTA1OVoYDzIxMTQw
NDI5MTc1MDU5WjCBrjELMAkGA1UEBhMCVVMxEzARBgNVBAgTCkNhbGlmb3JuaWEx
PTA7BgNVBAoTNFhNTCBTZWN1cml0eSBMaWJyYXJ5IChodHRwOi8vd3d3LmFsZWtz
ZXkuY29tL3htbHNlYykxEDAOBgNVBAsTB1Jvb3QgQ0ExFjAUBgNVBAMTDUFsZWtz
ZXkgU2FuaW4xITAfBgkqhkiG9w0BCQEWEnhtbHNlY0BhbGVrc2V5LmNvbTCBnzAN
BgkqhkiG9w0BAQEFAAOBjQAwgYkCgYEAtY4MCNj/qrOzVuex1BD/PuCYTDDOLLVj
tpKXQteQPqy0kgMwuQgRwdNnICIHQbnFKL40XoyACJVWKM7b0LkvWJNeyVzXPqEE
9ZPmNxWGUjVcr7powT7v8V7S2QflUnr8ZvR4XWwkZJ9EYKNhenijgJ5yYDrXCWdv
C+fnjBjv2LcCAwEAAaOCARcwggETMB0GA1UdDgQWBBQGtaSsp6p1ROoVnE/fBYNP
ah7+CzCB4wYDVR0jBIHbMIHYgBQGtaSsp6p1ROoVnE/fBYNPah7+C6GBtKSBsTCB
rjELMAkGA1UEBhMCVVMxEzARBgNVBAgTCkNhbGlmb3JuaWExPTA7BgNVBAoTNFhN
TCBTZWN1cml0eSBMaWJyYXJ5IChodHRwOi8vd3d3LmFsZWtzZXkuY29tL3htbHNl
YykxEDAOBgNVBAsTB1Jvb3QgQ0ExFjAUBgNVBAMTDUFsZWtzZXkgU2FuaW4xITAf
BgkqhkiG9w0BCQEWEnhtbHNlY0BhbGVrc2V5LmNvbYIJAK+ii7kzrdqsMAwGA1Ud
EwQFMAMBAf8wDQYJKoZIhvcNAQEFBQADgYEARpb86RP/ck55X+NunXeIX81i763b
j7Z1VJwFbA/QfupzxnqJ2IP/lxC8YxJ3Bp2IJMI7rC9r0poa41ZxI5rGHip97Dpg
sxPF9lkRUmKBBQjkICOq1w/4d2DRInBoqXttD+0WsqDfNDVK+7kSE07ytn3RzHCj
j0gv0PdxmuCsR/E=
-----END CERTIFICATE-----
