Certificate:
    Data:
        Version: 3 (0x2)
        Serial Number: 12655831530416757422 (0xafa28bb933addaae)
    Signature Algorithm: sha1WithRSAEncryption
        Issuer: C=US, ST=California, O=XML Security Library (http://www.aleksey.com/xmlsec), CN=Aleksey Sanin/emailAddress=xmlsec@aleksey.com
        Validity
            Not Before: May 23 17:54:26 2014 GMT
            Not After : Apr 29 17:54:26 2114 GMT
        Subject: C=US, ST=California, O=XML Security Library (http://www.aleksey.com/xmlsec), OU=Test Third Level DSA Certificate, CN=Aleksey Sanin/emailAddress=xmlsec@aleksey.com
        Subject Public Key Info:
            Public Key Algorithm: dsaEncryption
                pub: 
                    3a:27:48:30:c9:93:75:5a:21:f7:55:1c:f9:ce:8a:
                    d4:6a:57:95:cf:15:f3:03:92:c3:5b:d1:67:a5:9d:
                    97:65:fe:aa:24:97:d7:9a:53:ef:2e:88:7e:cb:b6:
                    c5:34:41:85:fd:94:4f:24:4e:99:5c:51:d0:f4:6f:
                    18:c3:60:9d
                P:   
                    00:c8:31:fc:3a:3f:bf:45:73:0d:21:af:16:0a:ab:
                    77:8f:87:bc:26:7a:f7:3d:e5:48:df:17:62:47:40:
                    90:57:25:bf:57:14:16:b9:2d:1c:bb:d6:5c:e1:fc:
                    e6:0c:1f:8a:21:e2:08:a2:15:54:55:04:25:bd:1e:
                    96:6a:39:33:49
                Q:   
                    00:94:43:ab:9a:a8:c9:1b:7b:5f:8d:4e:3d:5e:32:
                    6e:33:70:17:36:c9
                G:   
                    05:33:c3:39:9b:a7:9d:db:67:e6:f3:0d:c3:94:e9:
                    41:a1:dc:88:3f:4c:57:4b:19:76:1e:be:cd:ed:89:
                    96:85:2d:af:ff:11:81:7e:97:94:dd:b2:bd:cd:42:
                    91:91:45:fe:1a:ad:7b:d7:3d:9c:88:26:16:18:1c:
                    95:64:ec:e3
        X509v3 extensions:
            X509v3 Basic Constraints: 
                CA:TRUE
            Netscape Comment: 
                OpenSSL Generated Certificate
            X509v3 Subject Key Identifier: 
                A5:58:9F:29:70:2D:1A:42:47:44:03:DA:AE:67:A7:BA:F7:29:65:3E
            X509v3 Authority Key Identifier: 
                keyid:FE:E4:EC:53:24:F0:95:95:C7:10:B5:E1:44:B5:5D:39:65:5A:E3:7E
                DirName:/C=US/ST=California/O=XML Security Library (http://www.aleksey.com/xmlsec)/OU=Root CA/CN=Aleksey Sanin/emailAddress=xmlsec@aleksey.com
                serial:AF:A2:8B:B9:33:AD:DA:AD

    Signature Algorithm: sha1WithRSAEncryption
         7e:a5:9d:e4:1b:ef:1a:b2:34:ad:a4:d9:15:f1:45:2d:c5:d2:
         97:db:9a:8d:4b:99:ab:54:e3:77:6e:97:b3:8f:c9:9c:a3:38:
         92:7d:b2:63:c6:d2:6d:01:88:a7:bd:4c:1c:5a:6b:02:f8:f9:
         a6:4f:ff:b3:ad:68:60:dc:0b:04
-----BEGIN CERTIFICATE-----
MIIEPDCCA+agAwIBAgIJAK+ii7kzrdquMA0GCSqGSIb3DQEBBQUAMIGcMQswCQYD
VQQGEwJVUzETMBEGA1UECBMKQ2FsaWZvcm5pYTE9MDsGA1UEChM0WE1MIFNlY3Vy
aXR5IExpYnJhcnkgKGh0dHA6Ly93d3cuYWxla3NleS5jb20veG1sc2VjKTEWMBQG
A1UEAxMNQWxla3NleSBTYW5pbjEhMB8GCSqGSIb3DQEJARYSeG1sc2VjQGFsZWtz
ZXkuY29tMCAXDTE0MDUyMzE3NTQyNloYDzIxMTQwNDI5MTc1NDI2WjCBxzELMAkG
A1UEBhMCVVMxEzARBgNVBAgTCkNhbGlmb3JuaWExPTA7BgNVBAoTNFhNTCBTZWN1
cml0eSBMaWJyYXJ5IChodHRwOi8vd3d3LmFsZWtzZXkuY29tL3htbHNlYykxKTAn
BgNVBAsTIFRlc3QgVGhpcmQgTGV2ZWwgRFNBIENlcnRpZmljYXRlMRYwFAYDVQQD
Ew1BbGVrc2V5IFNhbmluMSEwHwYJKoZIhvcNAQkBFhJ4bWxzZWNAYWxla3NleS5j
b20wgfAwgagGByqGSM44BAEwgZwCQQDIMfw6P79Fcw0hrxYKq3ePh7wmevc95Ujf
F2JHQJBXJb9XFBa5LRy71lzh/OYMH4oh4giiFVRVBCW9HpZqOTNJAhUAlEOrmqjJ
G3tfjU49XjJuM3AXNskCQAUzwzmbp53bZ+bzDcOU6UGh3Ig/TFdLGXYevs3tiZaF
La//EYF+l5Tdsr3NQpGRRf4arXvXPZyIJhYYHJVk7OMDQwACQDonSDDJk3VaIfdV
HPnOitRqV5XPFfMDksNb0WelnZdl/qokl9eaU+8uiH7LtsU0QYX9lE8kTplcUdD0
bxjDYJ2jggFFMIIBQTAMBgNVHRMEBTADAQH/MCwGCWCGSAGG+EIBDQQfFh1PcGVu
U1NMIEdlbmVyYXRlZCBDZXJ0aWZpY2F0ZTAdBgNVHQ4EFgQUpVifKXAtGkJHRAPa
rmenuvcpZT4wgeMGA1UdIwSB2zCB2IAU/uTsUyTwlZXHELXhRLVdOWVa436hgbSk
gbEwga4xCzAJBgNVBAYTAlVTMRMwEQYDVQQIEwpDYWxpZm9ybmlhMT0wOwYDVQQK
EzRYTUwgU2VjdXJpdHkgTGlicmFyeSAoaHR0cDovL3d3dy5hbGVrc2V5LmNvbS94
bWxzZWMpMRAwDgYDVQQLEwdSb290IENBMRYwFAYDVQQDEw1BbGVrc2V5IFNhbmlu
MSEwHwYJKoZIhvcNAQkBFhJ4bWxzZWNAYWxla3NleS5jb22CCQCvoou5M63arTAN
BgkqhkiG9w0BAQUFAANBAH6lneQb7xqyNK2k2RXxRS3F0pfbmo1LmatU43dul7OP
yZyjOJJ9smPG0m0BiKe9TBxaawL4+aZP/7OtaGDcCwQ=
-----END CERTIFICATE-----
