Certificate:
    Data:
        Version: 3 (0x2)
        Serial Number: 12655831530416757425 (0xafa28bb933addab1)
    Signature Algorithm: sha1WithRSAEncryption
        Issuer: C=US, ST=California, O=XML Security Library (http://www.aleksey.com/xmlsec), CN=Aleksey Sanin/emailAddress=xmlsec@aleksey.com
        Validity
            Not Before: May 23 17:58:16 2014 GMT
            Not After : May 24 17:58:16 2014 GMT
        Subject: C=US, ST=California, O=XML Security Library (http://www.aleksey.com/xmlsec), OU=Test Expired RSA Certificate, CN=Aleksey Sanin/emailAddress=xmlsec@aleksey.com
        Subject Public Key Info:
            Public Key Algorithm: rsaEncryption
                Public-Key: (512 bit)
                Modulus:
                    00:c9:52:65:60:40:40:66:30:bf:34:3e:f4:7c:cc:
                    8c:06:93:20:e2:13:96:e8:11:64:78:a4:69:9a:19:
                    43:87:6d:19:c5:42:4b:76:9a:df:b8:fd:07:98:b6:
                    6e:c6:45:54:54:7b:a6:09:8a:05:28:bd:4d:6e:dc:
                    34:03:88:e8:f3
                Exponent: 65537 (0x10001)
        X509v3 extensions:
            X509v3 Basic Constraints: 
                CA:TRUE
            Netscape Comment: 
                OpenSSL Generated Certificate
            X509v3 Subject Key Identifier: 
                F9:FA:89:12:34:4A:3B:59:06:DF:2E:17:F2:C0:8F:B2:26:07:78:C9
            X509v3 Authority Key Identifier: 
                keyid:FE:E4:EC:53:24:F0:95:95:C7:10:B5:E1:44:B5:5D:39:65:5A:E3:7E
                DirName:/C=US/ST=California/O=XML Security Library (http://www.aleksey.com/xmlsec)/OU=Root CA/CN=Aleksey Sanin/emailAddress=xmlsec@aleksey.com
                serial:AF:A2:8B:B9:33:AD:DA:AD

    Signature Algorithm: sha1WithRSAEncryption
         7a:82:46:26:8f:38:e2:c0:c0:3b:7a:fc:cb:5e:9f:d0:f0:dc:
         81:59:04:b7:c1:f1:da:a7:23:0d:76:b1:e5:50:9a:f1:1e:eb:
         99:1a:4c:36:37:1c:f3:de:c5:4f:bd:a3:c7:0f:b0:75:91:48:
         d7:76:cd:be:d7:6c:46:00:41:e7
-----BEGIN CERTIFICATE-----
MIIDoTCCA0ugAwIBAgIJAK+ii7kzrdqxMA0GCSqGSIb3DQEBBQUAMIGcMQswCQYD
VQQGEwJVUzETMBEGA1UECBMKQ2FsaWZvcm5pYTE9MDsGA1UEChM0WE1MIFNlY3Vy
aXR5IExpYnJhcnkgKGh0dHA6Ly93d3cuYWxla3NleS5jb20veG1sc2VjKTEWMBQG
A1UEAxMNQWxla3NleSBTYW5pbjEhMB8GCSqGSIb3DQEJARYSeG1sc2VjQGFsZWtz
ZXkuY29tMB4XDTE0MDUyMzE3NTgxNloXDTE0MDUyNDE3NTgxNlowgcMxCzAJBgNV
BAYTAlVTMRMwEQYDVQQIEwpDYWxpZm9ybmlhMT0wOwYDVQQKEzRYTUwgU2VjdXJp
dHkgTGlicmFyeSAoaHR0cDovL3d3dy5hbGVrc2V5LmNvbS94bWxzZWMpMSUwIwYD
VQQLExxUZXN0IEV4cGlyZWQgUlNBIENlcnRpZmljYXRlMRYwFAYDVQQDEw1BbGVr
c2V5IFNhbmluMSEwHwYJKoZIhvcNAQkBFhJ4bWxzZWNAYWxla3NleS5jb20wXDAN
BgkqhkiG9w0BAQEFAANLADBIAkEAyVJlYEBAZjC/ND70fMyMBpMg4hOW6BFkeKRp
mhlDh20ZxUJLdprfuP0HmLZuxkVUVHumCYoFKL1Nbtw0A4jo8wIDAQABo4IBRTCC
AUEwDAYDVR0TBAUwAwEB/zAsBglghkgBhvhCAQ0EHxYdT3BlblNTTCBHZW5lcmF0
ZWQgQ2VydGlmaWNhdGUwHQYDVR0OBBYEFPn6iRI0SjtZBt8uF/LAj7ImB3jJMIHj
BgNVHSMEgdswgdiAFP7k7FMk8JWVxxC14US1XTllWuN+oYG0pIGxMIGuMQswCQYD
VQQGEwJVUzETMBEGA1UECBMKQ2FsaWZvcm5pYTE9MDsGA1UEChM0WE1MIFNlY3Vy
aXR5IExpYnJhcnkgKGh0dHA6Ly93d3cuYWxla3NleS5jb20veG1sc2VjKTEQMA4G
A1UECxMHUm9vdCBDQTEWMBQGA1UEAxMNQWxla3NleSBTYW5pbjEhMB8GCSqGSIb3
DQEJARYSeG1sc2VjQGFsZWtzZXkuY29tggkAr6KLuTOt2q0wDQYJKoZIhvcNAQEF
BQADQQB6gkYmjzjiwMA7evzLXp/Q8NyBWQS3wfHapyMNdrHlUJrxHuuZGkw2Nxzz
3sVPvaPHD7B1kUjXds2+12xGAEHn
-----END CERTIFICATE-----
